target datalayout = "e-m:e-p270:32:32-p271:32:32-p272:64:64-i64:64-i128:128-f80:128-n8:16:32:64-S128"
target triple = "x86_64-pc-linux-gnu"

%struct.dasm_State = type { i64, ptr, ptr, i64, ptr, i64, ptr, ptr, i64, i32, i32, [1 x %struct.dasm_Section] }
%struct.dasm_Section = type { ptr, ptr, i64, i32, i32, i32 }

; Function Attrs: nounwind uwtable
define hidden void @dasm_setupglobal(ptr noundef %0, ptr noundef %1, i32 noundef %2) #0 {
  %4 = alloca ptr, align 8
  %5 = alloca ptr, align 8
  %6 = alloca i32, align 4
  %7 = alloca ptr, align 8
  %8 = alloca i64, align 8
  %9 = alloca i64, align 8
  store ptr %0, ptr %4, align 8
  store ptr %1, ptr %5, align 8
  store i32 %2, ptr %6, align 4
  %10 = load ptr, ptr %4, align 8
  %11 = load ptr, ptr %10, align 8
  store ptr %11, ptr %7, align 8
  %12 = load ptr, ptr %5, align 8
  %13 = load ptr, ptr %7, align 8
  %14 = getelementptr inbounds %struct.dasm_State, ptr %13, i32 0, i32 6
  store ptr %12, ptr %14, align 8
  br label %15

15:                                               ; preds = %3
  %16 = load ptr, ptr %7, align 8
  %17 = getelementptr inbounds %struct.dasm_State, ptr %16, i32 0, i32 3
  %18 = load i64, ptr %17, align 8
  store i64 %18, ptr %8, align 8
  %19 = load i32, ptr %6, align 4
  %20 = add i32 10, %19
  %21 = zext i32 %20 to i64
  %22 = mul i64 %21, 4
  store i64 %22, ptr %9, align 8
  %23 = load i64, ptr %8, align 8
  %24 = load i64, ptr %9, align 8
  %25 = icmp ult i64 %23, %24
  br i1 %25, label %26, label %50

26:                                               ; preds = %15
  %27 = load i64, ptr %8, align 8
  %28 = icmp ult i64 %27, 16
  br i1 %28, label %29, label %30

29:                                               ; preds = %26
  store i64 16, ptr %8, align 8
  br label %30

30:                                               ; preds = %29, %26
  br label %31

31:                                               ; preds = %35, %30
  %32 = load i64, ptr %8, align 8
  %33 = load i64, ptr %9, align 8
  %34 = icmp ult i64 %32, %33
  br i1 %34, label %35, label %39

35:                                               ; preds = %31
  %36 = load i64, ptr %8, align 8
  %37 = load i64, ptr %8, align 8
  %38 = add i64 %37, %36
  store i64 %38, ptr %8, align 8
  br label %31

39:                                               ; preds = %31
  %40 = load ptr, ptr %7, align 8
  %41 = getelementptr inbounds %struct.dasm_State, ptr %40, i32 0, i32 2
  %42 = load ptr, ptr %41, align 8
  %43 = load i64, ptr %8, align 8
  %44 = call ptr @_erealloc(ptr noundef %42, i64 noundef %43) #12
  %45 = load ptr, ptr %7, align 8
  %46 = getelementptr inbounds %struct.dasm_State, ptr %45, i32 0, i32 2
  store ptr %44, ptr %46, align 8
  %47 = load i64, ptr %8, align 8
  %48 = load ptr, ptr %7, align 8
  %49 = getelementptr inbounds %struct.dasm_State, ptr %48, i32 0, i32 3
  store i64 %47, ptr %49, align 8
  br label %50

50:                                               ; preds = %39, %15
  br label %51

51:                                               ; preds = %50
  ret void
}