; Function Attrs: nounwind uwtable
define hidden void @dasm_setupglobal(ptr nocapture noundef readonly %0, ptr noundef %1, i32 noundef %2) local_unnamed_addr #1 {
  %4 = load ptr, ptr %0, align 8
  %5 = getelementptr inbounds i8, ptr %4, i64 48
  store ptr %1, ptr %5, align 8
  %6 = getelementptr inbounds i8, ptr %4, i64 24
  %7 = load i64, ptr %6, align 8
  %8 = add i32 %2, 10
  %9 = zext i32 %8 to i64
  %10 = shl nuw nsw i64 %9, 2
  %11 = icmp ult i64 %7, %10
  br i1 %11, label %12, label %20

12:                                               ; preds = %3
  %spec.store.select = tail call i64 @llvm.umax.i64(i64 %7, i64 16)
  br label %13

13:                                               ; preds = %13, %12
  %.0 = phi i64 [ %spec.store.select, %12 ], [ %15, %13 ]
  %14 = icmp ult i64 %.0, %10
  %15 = shl nuw nsw i64 %.0, 1
  br i1 %14, label %13, label %16

16:                                               ; preds = %13
  %17 = getelementptr inbounds i8, ptr %4, i64 16
  %18 = load ptr, ptr %17, align 8
  %19 = tail call ptr @_erealloc(ptr noundef %18, i64 noundef %.0) #23
  store ptr %19, ptr %17, align 8
  store i64 %.0, ptr %6, align 8
  br label %20

20:                                               ; preds = %3, %16
  ret void
}